target datalayout = "e-m:e-p270:32:32-p271:32:32-p272:64:64-i64:64-i128:128-f80:128-n8:16:32:64-S128"
target triple = "x86_64-pc-linux-gnu"

%struct._wmem_tree_key_t = type { i32, ptr }
%struct.nstime_t = type { i64, i32 }
%struct.nvme_cmd_ctx = type { i32, i32, i32, [16 x i32], i32, %struct.nstime_t, %struct.nstime_t, i32, i8, %union.anon, i8 }
%union.anon = type { %struct.anon.1 }
%struct.anon.1 = type { i32, i32, i32, i32, i16, i8, i8, i64, i8 }
%struct.nvme_q_ctx = type { ptr, ptr, ptr, ptr, ptr, i16 }
%struct.keyed_data_req = type { i64, i32, i32 }

@ett_data = internal global i32 0, align 4
@hf_nvme_cmd_sgl_desc_type = internal global i32 0, align 4
@.str.3 = private unnamed_addr constant [4 x i8] c" %s\00", align 1
@.str.4 = private unnamed_addr constant [9 x i8] c"Reserved\00", align 1
@hf_nvme_cmd_sgl_desc_sub_type = internal global i32 0, align 4
@hf_nvme_cmd_sgl_desc_addr = internal global i32 0, align 4
@hf_nvme_cmd_sgl_desc_len = internal global i32 0, align 4
@hf_nvme_cmd_sgl_desc_rsvd = internal global i32 0, align 4
@hf_nvme_cmd_sgl_desc_addr_rsvd = internal global i32 0, align 4
@hf_nvme_cmd_sgl_desc_key = internal global i32 0, align 4

; Function Attrs: nounwind null_pointer_is_valid sspstrong uwtable
define internal void @nvme_build_pending_transfer_key(ptr noundef %0, ptr noundef %1) #5 {
  %3 = alloca ptr, align 8
  %4 = alloca ptr, align 8
  store ptr %0, ptr %3, align 8
  store ptr %1, ptr %4, align 8
  %5 = load ptr, ptr %3, align 8
  %6 = getelementptr %struct._wmem_tree_key_t, ptr %5, i64 0
  %7 = getelementptr inbounds nuw %struct._wmem_tree_key_t, ptr %6, i32 0, i32 0
  store i32 2, ptr %7, align 8
  %8 = load ptr, ptr %4, align 8
  %9 = getelementptr inbounds nuw %struct.keyed_data_req, ptr %8, i32 0, i32 0
  %10 = load ptr, ptr %3, align 8
  %11 = getelementptr %struct._wmem_tree_key_t, ptr %10, i64 0
  %12 = getelementptr inbounds nuw %struct._wmem_tree_key_t, ptr %11, i32 0, i32 1
  store ptr %9, ptr %12, align 8
  %13 = load ptr, ptr %3, align 8
  %14 = getelementptr %struct._wmem_tree_key_t, ptr %13, i64 1
  %15 = getelementptr inbounds nuw %struct._wmem_tree_key_t, ptr %14, i32 0, i32 0
  store i32 1, ptr %15, align 8
  %16 = load ptr, ptr %4, align 8
  %17 = getelementptr inbounds nuw %struct.keyed_data_req, ptr %16, i32 0, i32 1
  %18 = load ptr, ptr %3, align 8
  %19 = getelementptr %struct._wmem_tree_key_t, ptr %18, i64 1
  %20 = getelementptr inbounds nuw %struct._wmem_tree_key_t, ptr %19, i32 0, i32 1
  store ptr %17, ptr %20, align 8
  %21 = load ptr, ptr %3, align 8
  %22 = getelementptr %struct._wmem_tree_key_t, ptr %21, i64 2
  %23 = getelementptr inbounds nuw %struct._wmem_tree_key_t, ptr %22, i32 0, i32 0
  store i32 1, ptr %23, align 8
  %24 = load ptr, ptr %4, align 8
  %25 = getelementptr inbounds nuw %struct.keyed_data_req, ptr %24, i32 0, i32 2
  %26 = load ptr, ptr %3, align 8
  %27 = getelementptr %struct._wmem_tree_key_t, ptr %26, i64 2
  %28 = getelementptr inbounds nuw %struct._wmem_tree_key_t, ptr %27, i32 0, i32 1
  store ptr %25, ptr %28, align 8
  %29 = load ptr, ptr %3, align 8
  %30 = getelementptr %struct._wmem_tree_key_t, ptr %29, i64 3
  %31 = getelementptr inbounds nuw %struct._wmem_tree_key_t, ptr %30, i32 0, i32 0
  store i32 0, ptr %31, align 8
  %32 = load ptr, ptr %3, align 8
  %33 = getelementptr %struct._wmem_tree_key_t, ptr %32, i64 3
  %34 = getelementptr inbounds nuw %struct._wmem_tree_key_t, ptr %33, i32 0, i32 1
  store ptr null, ptr %34, align 8
  ret void
}

; Function Attrs: alwaysinline nounwind
define internal ptr @memset.inline(ptr %0, i32 %1, i64 %2) #6 {
  %4 = alloca ptr, align 8
  %5 = alloca i32, align 4
  %6 = alloca i64, align 8
  store ptr %0, ptr %4, align 8
  store i32 %1, ptr %5, align 4
  store i64 %2, ptr %6, align 8
  %7 = load ptr, ptr %4, align 8
  %8 = load i32, ptr %5, align 4
  %9 = load i64, ptr %6, align 8
  %10 = load ptr, ptr %4, align 8
  %11 = call i64 @llvm.objectsize.i64.p0(ptr %10, i1 false, i1 true, i1 true)
  %12 = call ptr @__memset_chk(ptr noundef %7, i32 noundef %8, i64 noundef %9, i64 noundef %11) #9
  ret ptr %12
}

; Function Attrs: null_pointer_is_valid sspstrong uwtable
define hidden void @nvme_add_data_request(ptr noundef %0, ptr noundef %1, ptr noundef %2) #0 {
  %4 = alloca ptr, align 8
  %5 = alloca ptr, align 8
  %6 = alloca ptr, align 8
  %7 = alloca [4 x %struct._wmem_tree_key_t], align 16
  store ptr %0, ptr %4, align 8
  store ptr %1, ptr %5, align 8
  store ptr %2, ptr %6, align 8
  call void @llvm.lifetime.start.p0(i64 64, ptr %7) #9
  %8 = load ptr, ptr %5, align 8
  %9 = getelementptr inbounds nuw %struct.nvme_cmd_ctx, ptr %8, i32 0, i32 3
  %10 = getelementptr inbounds [16 x i32], ptr %9, i64 0, i64 0
  %11 = call ptr @memset.inline(ptr noundef %10, i32 noundef 0, i64 noundef 64) #9
  %12 = getelementptr inbounds [4 x %struct._wmem_tree_key_t], ptr %7, i64 0, i64 0
  %13 = load ptr, ptr %6, align 8
  call void @nvme_build_pending_transfer_key(ptr noundef %12, ptr noundef %13)
  %14 = load ptr, ptr %4, align 8
  %15 = getelementptr inbounds nuw %struct.nvme_q_ctx, ptr %14, i32 0, i32 2
  %16 = load ptr, ptr %15, align 8
  %17 = getelementptr inbounds [4 x %struct._wmem_tree_key_t], ptr %7, i64 0, i64 0
  %18 = load ptr, ptr %5, align 8
  call void @wmem_tree_insert32_array(ptr noundef %16, ptr noundef %17, ptr noundef %18)
  call void @llvm.lifetime.end.p0(i64 64, ptr %7) #9
  ret void
}

; Function Attrs: null_pointer_is_valid sspstrong uwtable
define hidden void @dissect_nvme_cmd_sgl(ptr noundef %0, ptr noundef %1, i32 noundef %2, ptr noundef %3, ptr noundef %4, i32 noundef %5, i1 noundef zeroext %6) #0 {
  %8 = alloca ptr, align 8
  %9 = alloca ptr, align 8
  %10 = alloca i32, align 4
  %11 = alloca ptr, align 8
  %12 = alloca ptr, align 8
  %13 = alloca i32, align 4
  %14 = alloca i8, align 1
  %15 = alloca ptr, align 8
  %16 = alloca ptr, align 8
  %17 = alloca ptr, align 8
  %18 = alloca ptr, align 8
  %19 = alloca i8, align 1
  %20 = alloca i8, align 1
  %21 = alloca i8, align 1
  %22 = alloca i32, align 4
  %23 = alloca %struct.keyed_data_req, align 8
  store ptr %0, ptr %8, align 8
  store ptr %1, ptr %9, align 8
  store i32 %2, ptr %10, align 4
  store ptr %3, ptr %11, align 8
  store ptr %4, ptr %12, align 8
  store i32 %5, ptr %13, align 4
  %24 = zext i1 %6 to i8
  store i8 %24, ptr %14, align 1
  call void @llvm.lifetime.start.p0(i64 8, ptr %15) #9
  call void @llvm.lifetime.start.p0(i64 8, ptr %16) #9
  call void @llvm.lifetime.start.p0(i64 8, ptr %17) #9
  call void @llvm.lifetime.start.p0(i64 8, ptr %18) #9
  call void @llvm.lifetime.start.p0(i64 1, ptr %19) #9
  call void @llvm.lifetime.start.p0(i64 1, ptr %20) #9
  call void @llvm.lifetime.start.p0(i64 1, ptr %21) #9
  call void @llvm.lifetime.start.p0(i64 4, ptr %22) #9
  %25 = load i32, ptr %13, align 4
  %26 = add i32 24, %25
  store i32 %26, ptr %22, align 4
  %27 = load ptr, ptr %9, align 8
  %28 = load i32, ptr %10, align 4
  %29 = load ptr, ptr %8, align 8
  %30 = load i32, ptr %22, align 4
  %31 = call ptr @proto_tree_add_item(ptr noundef %27, i32 noundef %28, ptr noundef %29, i32 noundef %30, i32 noundef 16, i32 noundef 0)
  store ptr %31, ptr %15, align 8
  %32 = load ptr, ptr %15, align 8
  %33 = load i32, ptr @ett_data, align 4
  %34 = call ptr @proto_item_add_subtree(ptr noundef %32, i32 noundef %33)
  store ptr %34, ptr %16, align 8
  %35 = load ptr, ptr %8, align 8
  %36 = load i32, ptr %22, align 4
  %37 = add i32 %36, 15
  %38 = call zeroext i8 @tvb_get_uint8(ptr noundef %35, i32 noundef %37)
  store i8 %38, ptr %19, align 1
  %39 = load i8, ptr %19, align 1
  %40 = zext i8 %39 to i32
  %41 = and i32 %40, 255
  %42 = ashr i32 %41, 4
  %43 = trunc i32 %42 to i8
  store i8 %43, ptr %20, align 1
  %44 = load i8, ptr %19, align 1
  %45 = zext i8 %44 to i32
  %46 = and i32 %45, 15
  %47 = trunc i32 %46 to i8
  store i8 %47, ptr %21, align 1
  %48 = load ptr, ptr %16, align 8
  %49 = load i32, ptr @hf_nvme_cmd_sgl_desc_type, align 4
  %50 = load ptr, ptr %8, align 8
  %51 = load i32, ptr %22, align 4
  %52 = add i32 %51, 15
  %53 = call ptr @proto_tree_add_item(ptr noundef %48, i32 noundef %49, ptr noundef %50, i32 noundef %52, i32 noundef 1, i32 noundef -2147483648)
  store ptr %53, ptr %17, align 8
  %54 = load ptr, ptr %17, align 8
  %55 = load i8, ptr %20, align 1
  %56 = zext i8 %55 to i32
  %57 = call ptr @val_to_str_const(i32 noundef %56, ptr noundef @sgl_type_tbl, ptr noundef @.str.4)
  call void (ptr, ptr, ...) @proto_item_append_text(ptr noundef %54, ptr noundef @.str.3, ptr noundef %57)
  %58 = load ptr, ptr %16, align 8
  %59 = load i32, ptr @hf_nvme_cmd_sgl_desc_sub_type, align 4
  %60 = load ptr, ptr %8, align 8
  %61 = load i32, ptr %22, align 4
  %62 = add i32 %61, 15
  %63 = call ptr @proto_tree_add_item(ptr noundef %58, i32 noundef %59, ptr noundef %60, i32 noundef %62, i32 noundef 1, i32 noundef -2147483648)
  store ptr %63, ptr %18, align 8
  %64 = load ptr, ptr %18, align 8
  %65 = load i8, ptr %21, align 1
  %66 = zext i8 %65 to i32
  %67 = call ptr @val_to_str_const(i32 noundef %66, ptr noundef @sgl_sub_type_tbl, ptr noundef @.str.4)
  call void (ptr, ptr, ...) @proto_item_append_text(ptr noundef %64, ptr noundef @.str.3, ptr noundef %67)
  %68 = load i8, ptr %20, align 1
  %69 = zext i8 %68 to i32
  switch i32 %69, label %145 [
    i32 0, label %70
    i32 3, label %70
    i32 2, label %70
    i32 1, label %88
    i32 4, label %106
    i32 15, label %144
  ]

70:                                               ; preds = %7, %7, %7
  %71 = load ptr, ptr %16, align 8
  %72 = load i32, ptr @hf_nvme_cmd_sgl_desc_addr, align 4
  %73 = load ptr, ptr %8, align 8
  %74 = load i32, ptr %22, align 4
  %75 = call ptr @proto_tree_add_item(ptr noundef %71, i32 noundef %72, ptr noundef %73, i32 noundef %74, i32 noundef 8, i32 noundef -2147483648)
  %76 = load ptr, ptr %16, align 8
  %77 = load i32, ptr @hf_nvme_cmd_sgl_desc_len, align 4
  %78 = load ptr, ptr %8, align 8
  %79 = load i32, ptr %22, align 4
  %80 = add i32 %79, 8
  %81 = call ptr @proto_tree_add_item(ptr noundef %76, i32 noundef %77, ptr noundef %78, i32 noundef %80, i32 noundef 4, i32 noundef -2147483648)
  %82 = load ptr, ptr %16, align 8
  %83 = load i32, ptr @hf_nvme_cmd_sgl_desc_rsvd, align 4
  %84 = load ptr, ptr %8, align 8
  %85 = load i32, ptr %22, align 4
  %86 = add i32 %85, 12
  %87 = call ptr @proto_tree_add_item(ptr noundef %82, i32 noundef %83, ptr noundef %84, i32 noundef %86, i32 noundef 3, i32 noundef 0)
  br label %146

88:                                               ; preds = %7
  %89 = load ptr, ptr %16, align 8
  %90 = load i32, ptr @hf_nvme_cmd_sgl_desc_addr_rsvd, align 4
  %91 = load ptr, ptr %8, align 8
  %92 = load i32, ptr %22, align 4
  %93 = call ptr @proto_tree_add_item(ptr noundef %89, i32 noundef %90, ptr noundef %91, i32 noundef %92, i32 noundef 8, i32 noundef -2147483648)
  %94 = load ptr, ptr %16, align 8
  %95 = load i32, ptr @hf_nvme_cmd_sgl_desc_len, align 4
  %96 = load ptr, ptr %8, align 8
  %97 = load i32, ptr %22, align 4
  %98 = add i32 %97, 8
  %99 = call ptr @proto_tree_add_item(ptr noundef %94, i32 noundef %95, ptr noundef %96, i32 noundef %98, i32 noundef 4, i32 noundef -2147483648)
  %100 = load ptr, ptr %16, align 8
  %101 = load i32, ptr @hf_nvme_cmd_sgl_desc_rsvd, align 4
  %102 = load ptr, ptr %8, align 8
  %103 = load i32, ptr %22, align 4
  %104 = add i32 %103, 12
  %105 = call ptr @proto_tree_add_item(ptr noundef %100, i32 noundef %101, ptr noundef %102, i32 noundef %104, i32 noundef 3, i32 noundef 0)
  br label %146

106:                                              ; preds = %7
  call void @llvm.lifetime.start.p0(i64 16, ptr %23) #9
  %107 = load ptr, ptr %16, align 8
  %108 = load i32, ptr @hf_nvme_cmd_sgl_desc_addr, align 4
  %109 = load ptr, ptr %8, align 8
  %110 = load i32, ptr %22, align 4
  %111 = getelementptr inbounds nuw %struct.keyed_data_req, ptr %23, i32 0, i32 0
  %112 = call ptr @proto_tree_add_item_ret_uint64(ptr noundef %107, i32 noundef %108, ptr noundef %109, i32 noundef %110, i32 noundef 8, i32 noundef -2147483648, ptr noundef %111)
  %113 = load ptr, ptr %16, align 8
  %114 = load i32, ptr @hf_nvme_cmd_sgl_desc_len, align 4
  %115 = load ptr, ptr %8, align 8
  %116 = load i32, ptr %22, align 4
  %117 = add i32 %116, 8
  %118 = getelementptr inbounds nuw %struct.keyed_data_req, ptr %23, i32 0, i32 2
  %119 = call ptr @proto_tree_add_item_ret_uint(ptr noundef %113, i32 noundef %114, ptr noundef %115, i32 noundef %117, i32 noundef 3, i32 noundef -2147483648, ptr noundef %118)
  %120 = load ptr, ptr %16, align 8
  %121 = load i32, ptr @hf_nvme_cmd_sgl_desc_key, align 4
  %122 = load ptr, ptr %8, align 8
  %123 = load i32, ptr %22, align 4
  %124 = add i32 %123, 11
  %125 = getelementptr inbounds nuw %struct.keyed_data_req, ptr %23, i32 0, i32 1
  %126 = call ptr @proto_tree_add_item_ret_uint(ptr noundef %120, i32 noundef %121, ptr noundef %122, i32 noundef %124, i32 noundef 4, i32 noundef -2147483648, ptr noundef %125)
  %127 = load i8, ptr %14, align 1, !range !6, !noundef !7
  %128 = trunc i8 %127 to i1
  br i1 %128, label %143, label %129

129:                                              ; preds = %106
  %130 = load ptr, ptr %12, align 8
  %131 = icmp ne ptr %130, null
  br i1 %131, label %132, label %143

132:                                              ; preds = %129
  %133 = load ptr, ptr %11, align 8
  %134 = icmp ne ptr %133, null
  br i1 %134, label %135, label %143

135:                                              ; preds = %132
  %136 = load ptr, ptr %11, align 8
  %137 = getelementptr inbounds nuw %struct.nvme_q_ctx, ptr %136, i32 0, i32 2
  %138 = load ptr, ptr %137, align 8
  %139 = icmp ne ptr %138, null
  br i1 %139, label %140, label %143

140:                                              ; preds = %135
  %141 = load ptr, ptr %11, align 8
  %142 = load ptr, ptr %12, align 8
  call void @nvme_add_data_request(ptr noundef %141, ptr noundef %142, ptr noundef %23)
  br label %143

143:                                              ; preds = %140, %135, %132, %129, %106
  call void @llvm.lifetime.end.p0(i64 16, ptr %23) #9
  br label %146

144:                                              ; preds = %7
  br label %145

145:                                              ; preds = %7, %144
  br label %146

146:                                              ; preds = %145, %143, %88, %70
  call void @llvm.lifetime.end.p0(i64 4, ptr %22) #9
  call void @llvm.lifetime.end.p0(i64 1, ptr %21) #9
  call void @llvm.lifetime.end.p0(i64 1, ptr %20) #9
  call void @llvm.lifetime.end.p0(i64 1, ptr %19) #9
  call void @llvm.lifetime.end.p0(i64 8, ptr %18) #9
  call void @llvm.lifetime.end.p0(i64 8, ptr %17) #9
  call void @llvm.lifetime.end.p0(i64 8, ptr %16) #9
  call void @llvm.lifetime.end.p0(i64 8, ptr %15) #9
  ret void
}