; Function Attrs: null_pointer_is_valid sspstrong uwtable
define hidden void @dissect_nvme_cmd_sgl(ptr noundef %0, ptr noundef %1, i32 noundef %2, ptr noundef readonly captures(address_is_null) %3, ptr noundef %4, i32 noundef %5, i1 noundef zeroext %6) local_unnamed_addr #0 {
  %8 = alloca [4 x %struct._wmem_tree_key_t], align 16
  %9 = alloca %struct.keyed_data_req, align 8
  %10 = add i32 %5, 24
  %11 = tail call ptr @proto_tree_add_item(ptr noundef %1, i32 noundef %2, ptr noundef %0, i32 noundef %10, i32 noundef 16, i32 noundef 0)
  %12 = load i32, ptr @ett_data, align 4
  %13 = tail call ptr @proto_item_add_subtree(ptr noundef %11, i32 noundef %12)
  %14 = add i32 %5, 39
  %15 = tail call zeroext i8 @tvb_get_uint8(ptr noundef %0, i32 noundef %14)
  %16 = lshr i8 %15, 4
  %17 = and i8 %15, 15
  %18 = load i32, ptr @hf_nvme_cmd_sgl_desc_type, align 4
  %19 = tail call ptr @proto_tree_add_item(ptr noundef %13, i32 noundef %18, ptr noundef %0, i32 noundef %14, i32 noundef 1, i32 noundef -2147483648)
  %20 = zext nneg i8 %16 to i32
  %21 = tail call ptr @val_to_str_const(i32 noundef %20, ptr noundef nonnull @sgl_type_tbl, ptr noundef nonnull @.str.4)
  tail call void (ptr, ptr, ...) @proto_item_append_text(ptr noundef %19, ptr noundef nonnull @.str.3, ptr noundef %21)
  %22 = load i32, ptr @hf_nvme_cmd_sgl_desc_sub_type, align 4
  %23 = tail call ptr @proto_tree_add_item(ptr noundef %13, i32 noundef %22, ptr noundef %0, i32 noundef %14, i32 noundef 1, i32 noundef -2147483648)
  %24 = zext nneg i8 %17 to i32
  %25 = tail call ptr @val_to_str_const(i32 noundef %24, ptr noundef nonnull @sgl_sub_type_tbl, ptr noundef nonnull @.str.4)
  tail call void (ptr, ptr, ...) @proto_item_append_text(ptr noundef %23, ptr noundef nonnull @.str.3, ptr noundef %25)
  switch i8 %16, label %71 [
    i8 0, label %26
    i8 3, label %26
    i8 2, label %26
    i8 1, label %35
    i8 4, label %44
  ]

26:                                               ; preds = %7, %7, %7
  %27 = load i32, ptr @hf_nvme_cmd_sgl_desc_addr, align 4
  %28 = tail call ptr @proto_tree_add_item(ptr noundef %13, i32 noundef %27, ptr noundef %0, i32 noundef %10, i32 noundef 8, i32 noundef -2147483648)
  %29 = load i32, ptr @hf_nvme_cmd_sgl_desc_len, align 4
  %30 = add i32 %5, 32
  %31 = tail call ptr @proto_tree_add_item(ptr noundef %13, i32 noundef %29, ptr noundef %0, i32 noundef %30, i32 noundef 4, i32 noundef -2147483648)
  %32 = load i32, ptr @hf_nvme_cmd_sgl_desc_rsvd, align 4
  %33 = add i32 %5, 36
  %34 = tail call ptr @proto_tree_add_item(ptr noundef %13, i32 noundef %32, ptr noundef %0, i32 noundef %33, i32 noundef 3, i32 noundef 0)
  br label %71

35:                                               ; preds = %7
  %36 = load i32, ptr @hf_nvme_cmd_sgl_desc_addr_rsvd, align 4
  %37 = tail call ptr @proto_tree_add_item(ptr noundef %13, i32 noundef %36, ptr noundef %0, i32 noundef %10, i32 noundef 8, i32 noundef -2147483648)
  %38 = load i32, ptr @hf_nvme_cmd_sgl_desc_len, align 4
  %39 = add i32 %5, 32
  %40 = tail call ptr @proto_tree_add_item(ptr noundef %13, i32 noundef %38, ptr noundef %0, i32 noundef %39, i32 noundef 4, i32 noundef -2147483648)
  %41 = load i32, ptr @hf_nvme_cmd_sgl_desc_rsvd, align 4
  %42 = add i32 %5, 36
  %43 = tail call ptr @proto_tree_add_item(ptr noundef %13, i32 noundef %41, ptr noundef %0, i32 noundef %42, i32 noundef 3, i32 noundef 0)
  br label %71

44:                                               ; preds = %7
  call void @llvm.lifetime.start.p0(i64 16, ptr nonnull %9) #10
  %45 = load i32, ptr @hf_nvme_cmd_sgl_desc_addr, align 4
  %46 = call ptr @proto_tree_add_item_ret_uint64(ptr noundef %13, i32 noundef %45, ptr noundef %0, i32 noundef %10, i32 noundef 8, i32 noundef -2147483648, ptr noundef nonnull %9)
  %47 = load i32, ptr @hf_nvme_cmd_sgl_desc_len, align 4
  %48 = add i32 %5, 32
  %49 = getelementptr inbounds nuw i8, ptr %9, i64 12
  %50 = call ptr @proto_tree_add_item_ret_uint(ptr noundef %13, i32 noundef %47, ptr noundef %0, i32 noundef %48, i32 noundef 3, i32 noundef -2147483648, ptr noundef nonnull %49)
  %51 = load i32, ptr @hf_nvme_cmd_sgl_desc_key, align 4
  %52 = add i32 %5, 35
  %53 = getelementptr inbounds nuw i8, ptr %9, i64 8
  %54 = call ptr @proto_tree_add_item_ret_uint(ptr noundef %13, i32 noundef %51, ptr noundef %0, i32 noundef %52, i32 noundef 4, i32 noundef -2147483648, ptr noundef nonnull %53)
  %.not = xor i1 %6, true
  %55 = icmp ne ptr %4, null
  %or.cond = and i1 %55, %.not
  %56 = icmp ne ptr %3, null
  %or.cond3 = and i1 %56, %or.cond
  br i1 %or.cond3, label %57, label %70

57:                                               ; preds = %44
  %58 = getelementptr inbounds nuw i8, ptr %3, i64 16
  %59 = load ptr, ptr %58, align 8
  %.not57 = icmp eq ptr %59, null
  br i1 %.not57, label %70, label %60

60:                                               ; preds = %57
  call void @llvm.lifetime.start.p0(i64 64, ptr nonnull %8) #10
  %61 = getelementptr inbounds nuw i8, ptr %4, i64 12
  call void @llvm.memset.p0.i64(ptr noundef nonnull align 1 dereferenceable(64) %61, i8 noundef 0, i64 noundef 64, i1 noundef false) #10
  store i32 2, ptr %8, align 16
  %62 = getelementptr inbounds nuw i8, ptr %8, i64 8
  store ptr %9, ptr %62, align 8
  %63 = getelementptr inbounds nuw i8, ptr %8, i64 16
  store i32 1, ptr %63, align 16
  %64 = getelementptr inbounds nuw i8, ptr %8, i64 24
  store ptr %53, ptr %64, align 8
  %65 = getelementptr inbounds nuw i8, ptr %8, i64 32
  store i32 1, ptr %65, align 16
  %66 = getelementptr inbounds nuw i8, ptr %8, i64 40
  store ptr %49, ptr %66, align 8
  %67 = getelementptr inbounds nuw i8, ptr %8, i64 48
  store i32 0, ptr %67, align 16
  %68 = getelementptr inbounds nuw i8, ptr %8, i64 56
  store ptr null, ptr %68, align 8
  %69 = load ptr, ptr %58, align 8
  call void @wmem_tree_insert32_array(ptr noundef %69, ptr noundef nonnull %8, ptr noundef nonnull %4)
  call void @llvm.lifetime.end.p0(i64 64, ptr nonnull %8) #10
  br label %70

70:                                               ; preds = %60, %57, %44
  call void @llvm.lifetime.end.p0(i64 16, ptr nonnull %9) #10
  br label %71

71:                                               ; preds = %7, %70, %35, %26
  ret void
}